target datalayout = "e-m:e-p270:32:32-p271:32:32-p272:64:64-i64:64-i128:128-f80:128-n8:16:32:64-S128"
target triple = "x86_64-pc-linux-gnu"

%struct.exr_attr_box2i_t = type { %struct.exr_attr_v2i_t, %struct.exr_attr_v2i_t }
%struct.exr_attr_v2i_t = type { i32, i32 }
%struct._priv_exr_part_t = type { i32, i32, %struct.exr_attribute_list, ptr, ptr, ptr, ptr, ptr, ptr, ptr, ptr, ptr, ptr, ptr, ptr, ptr, ptr, %struct.exr_attr_box2i_t, %struct.exr_attr_box2i_t, i32, i32, i32, float, i32, i32, ptr, ptr, ptr, ptr, i64, i16, i16, i32, i64, i64 }
%struct.exr_attribute_list = type { i32, i32, ptr, ptr }
%struct._priv_exr_context_t = type { i8, i8, i8, i8, i8, i8, i8, i8, %struct.exr_attr_string_t, %struct.exr_attr_string_t, ptr, ptr, ptr, ptr, ptr, ptr, ptr, ptr, i32, i32, i32, i32, i32, float, ptr, ptr, ptr, i64, ptr, ptr, i64, i32, i32, i32, i32, %struct._priv_exr_part_t, ptr, ptr, %struct.exr_attribute_list, %union.pthread_mutex_t, i8, i8, [2 x i8], i32 }
%struct.exr_attr_string_t = type { i32, i32, ptr }
%union.pthread_mutex_t = type { %struct.__pthread_mutex_s }
%struct.__pthread_mutex_s = type { i32, i32, i32, i32, i32, i16, i16, %struct.__pthread_internal_list }
%struct.__pthread_internal_list = type { ptr, ptr }
%struct.exr_attr_tiledesc_t = type <{ i32, i32, i8 }>
%struct._internal_exr_seq_scratch = type { ptr, i64, i64, i64, ptr, ptr, ptr }

@.str.88 = private unnamed_addr constant [28 x i8] c"Unable to read '%s' %s data\00", align 1
@.str.101 = private unnamed_addr constant [51 x i8] c"Attribute '%s': Invalid size %d (exp '%s' size %d)\00", align 1
@.str.102 = private unnamed_addr constant [76 x i8] c"Attribute '%s': Invalid tile level specification encountered: found enum %d\00", align 1
@.str.103 = private unnamed_addr constant [79 x i8] c"Attribute '%s': Invalid tile rounding specification encountered: found enum %d\00", align 1

; Function Attrs: inlinehint nounwind uwtable
define internal i32 @__uint32_identity(i32 noundef %0) #4 {
  %2 = alloca i32, align 4
  store i32 %0, ptr %2, align 4, !tbaa !10
  %3 = load i32, ptr %2, align 4, !tbaa !10
  ret i32 %3
}

; Function Attrs: inlinehint nounwind uwtable
define internal i32 @one_to_native32(i32 noundef %0) #4 {
  %2 = alloca i32, align 4
  store i32 %0, ptr %2, align 4, !tbaa !10
  %3 = load i32, ptr %2, align 4, !tbaa !10
  %4 = call i32 @__uint32_identity(i32 noundef %3)
  ret i32 %4
}

; Function Attrs: nounwind uwtable
define internal i32 @extract_attr_tiledesc(ptr noundef %0, ptr noundef %1, ptr noundef %2, ptr noundef %3, ptr noundef %4, i32 noundef %5) #0 {
  %7 = alloca i32, align 4
  %8 = alloca ptr, align 8
  %9 = alloca ptr, align 8
  %10 = alloca ptr, align 8
  %11 = alloca ptr, align 8
  %12 = alloca ptr, align 8
  %13 = alloca i32, align 4
  %14 = alloca i32, align 4
  %15 = alloca i32, align 4
  store ptr %0, ptr %8, align 8, !tbaa !3
  store ptr %1, ptr %9, align 8, !tbaa !95
  store ptr %2, ptr %10, align 8, !tbaa !34
  store ptr %3, ptr %11, align 8, !tbaa !93
  store ptr %4, ptr %12, align 8, !tbaa !93
  store i32 %5, ptr %13, align 4, !tbaa !10
  call void @llvm.lifetime.start.p0(i64 4, ptr %14) #7
  %16 = load i32, ptr %13, align 4, !tbaa !10
  %17 = icmp ne i32 %16, 9
  br i1 %17, label %18, label %27

18:                                               ; preds = %6
  %19 = load ptr, ptr %8, align 8, !tbaa !3
  %20 = getelementptr inbounds nuw %struct._priv_exr_context_t, ptr %19, i32 0, i32 14
  %21 = load ptr, ptr %20, align 8, !tbaa !48
  %22 = load ptr, ptr %8, align 8, !tbaa !3
  %23 = load ptr, ptr %11, align 8, !tbaa !93
  %24 = load i32, ptr %13, align 4, !tbaa !10
  %25 = load ptr, ptr %12, align 8, !tbaa !93
  %26 = call i32 (ptr, i32, ptr, ...) %21(ptr noundef %22, i32 noundef 17, ptr noundef @.str.101, ptr noundef %23, i32 noundef %24, ptr noundef %25, i32 noundef 9)
  store i32 %26, ptr %7, align 4
  store i32 1, ptr %15, align 4
  br label %99

27:                                               ; preds = %6
  %28 = load ptr, ptr %9, align 8, !tbaa !95
  %29 = getelementptr inbounds nuw %struct._internal_exr_seq_scratch, ptr %28, i32 0, i32 4
  %30 = load ptr, ptr %29, align 8, !tbaa !88
  %31 = load ptr, ptr %9, align 8, !tbaa !95
  %32 = load ptr, ptr %10, align 8, !tbaa !34
  %33 = call i32 %30(ptr noundef %31, ptr noundef %32, i64 noundef 9)
  store i32 %33, ptr %14, align 4, !tbaa !10
  %34 = load i32, ptr %14, align 4, !tbaa !10
  %35 = icmp ne i32 %34, 0
  br i1 %35, label %36, label %45

36:                                               ; preds = %27
  %37 = load ptr, ptr %8, align 8, !tbaa !3
  %38 = getelementptr inbounds nuw %struct._priv_exr_context_t, ptr %37, i32 0, i32 14
  %39 = load ptr, ptr %38, align 8, !tbaa !48
  %40 = load ptr, ptr %8, align 8, !tbaa !3
  %41 = load i32, ptr %14, align 4, !tbaa !10
  %42 = load ptr, ptr %11, align 8, !tbaa !93
  %43 = load ptr, ptr %12, align 8, !tbaa !93
  %44 = call i32 (ptr, i32, ptr, ...) %39(ptr noundef %40, i32 noundef %41, ptr noundef @.str.88, ptr noundef %42, ptr noundef %43)
  store i32 %44, ptr %7, align 4
  store i32 1, ptr %15, align 4
  br label %99

45:                                               ; preds = %27
  %46 = load ptr, ptr %10, align 8, !tbaa !34
  %47 = getelementptr inbounds nuw %struct.exr_attr_tiledesc_t, ptr %46, i32 0, i32 0
  %48 = load i32, ptr %47, align 1, !tbaa !41
  %49 = call i32 @one_to_native32(i32 noundef %48)
  %50 = load ptr, ptr %10, align 8, !tbaa !34
  %51 = getelementptr inbounds nuw %struct.exr_attr_tiledesc_t, ptr %50, i32 0, i32 0
  store i32 %49, ptr %51, align 1, !tbaa !41
  %52 = load ptr, ptr %10, align 8, !tbaa !34
  %53 = getelementptr inbounds nuw %struct.exr_attr_tiledesc_t, ptr %52, i32 0, i32 1
  %54 = load i32, ptr %53, align 1, !tbaa !43
  %55 = call i32 @one_to_native32(i32 noundef %54)
  %56 = load ptr, ptr %10, align 8, !tbaa !34
  %57 = getelementptr inbounds nuw %struct.exr_attr_tiledesc_t, ptr %56, i32 0, i32 1
  store i32 %55, ptr %57, align 1, !tbaa !43
  %58 = load ptr, ptr %10, align 8, !tbaa !34
  %59 = getelementptr inbounds nuw %struct.exr_attr_tiledesc_t, ptr %58, i32 0, i32 2
  %60 = load i8, ptr %59, align 1, !tbaa !44
  %61 = zext i8 %60 to i32
  %62 = and i32 %61, 15
  %63 = icmp sge i32 %62, 3
  br i1 %63, label %64, label %76

64:                                               ; preds = %45
  %65 = load ptr, ptr %8, align 8, !tbaa !3
  %66 = getelementptr inbounds nuw %struct._priv_exr_context_t, ptr %65, i32 0, i32 14
  %67 = load ptr, ptr %66, align 8, !tbaa !48
  %68 = load ptr, ptr %8, align 8, !tbaa !3
  %69 = load ptr, ptr %11, align 8, !tbaa !93
  %70 = load ptr, ptr %10, align 8, !tbaa !34
  %71 = getelementptr inbounds nuw %struct.exr_attr_tiledesc_t, ptr %70, i32 0, i32 2
  %72 = load i8, ptr %71, align 1, !tbaa !44
  %73 = zext i8 %72 to i32
  %74 = and i32 %73, 15
  %75 = call i32 (ptr, i32, ptr, ...) %67(ptr noundef %68, i32 noundef 14, ptr noundef @.str.102, ptr noundef %69, i32 noundef %74)
  store i32 %75, ptr %7, align 4
  store i32 1, ptr %15, align 4
  br label %99

76:                                               ; preds = %45
  %77 = load ptr, ptr %10, align 8, !tbaa !34
  %78 = getelementptr inbounds nuw %struct.exr_attr_tiledesc_t, ptr %77, i32 0, i32 2
  %79 = load i8, ptr %78, align 1, !tbaa !44
  %80 = zext i8 %79 to i32
  %81 = ashr i32 %80, 4
  %82 = and i32 %81, 15
  %83 = icmp sge i32 %82, 2
  br i1 %83, label %84, label %97

84:                                               ; preds = %76
  %85 = load ptr, ptr %8, align 8, !tbaa !3
  %86 = getelementptr inbounds nuw %struct._priv_exr_context_t, ptr %85, i32 0, i32 14
  %87 = load ptr, ptr %86, align 8, !tbaa !48
  %88 = load ptr, ptr %8, align 8, !tbaa !3
  %89 = load ptr, ptr %11, align 8, !tbaa !93
  %90 = load ptr, ptr %10, align 8, !tbaa !34
  %91 = getelementptr inbounds nuw %struct.exr_attr_tiledesc_t, ptr %90, i32 0, i32 2
  %92 = load i8, ptr %91, align 1, !tbaa !44
  %93 = zext i8 %92 to i32
  %94 = ashr i32 %93, 4
  %95 = and i32 %94, 15
  %96 = call i32 (ptr, i32, ptr, ...) %87(ptr noundef %88, i32 noundef 14, ptr noundef @.str.103, ptr noundef %89, i32 noundef %95)
  store i32 %96, ptr %7, align 4
  store i32 1, ptr %15, align 4
  br label %99

97:                                               ; preds = %76
  %98 = load i32, ptr %14, align 4, !tbaa !10
  store i32 %98, ptr %7, align 4
  store i32 1, ptr %15, align 4
  br label %99

99:                                               ; preds = %97, %84, %64, %36, %18
  call void @llvm.lifetime.end.p0(i64 4, ptr %14) #7
  %100 = load i32, ptr %7, align 4
  ret i32 %100
}