; Function Attrs: nounwind uwtable
define internal fastcc i32 @extract_attr_tiledesc(ptr noundef %0, ptr noundef nonnull %1, ptr noundef %2, ptr noundef nonnull %3, ptr noundef nonnull %4, i32 noundef %5) unnamed_addr #0 {
  %.not = icmp eq i32 %5, 9
  br i1 %.not, label %11, label %7

7:                                                ; preds = %6
  %8 = getelementptr inbounds nuw i8, ptr %0, i64 72
  %9 = load ptr, ptr %8, align 8, !tbaa !40
  %10 = tail call i32 (ptr, i32, ptr, ...) %9(ptr noundef %0, i32 noundef 17, ptr noundef nonnull @.str.101, ptr noundef nonnull %3, i32 noundef %5, ptr noundef nonnull %4, i32 noundef 9) #9
  br label %36

11:                                               ; preds = %6
  %12 = getelementptr inbounds nuw i8, ptr %1, i64 32
  %13 = load ptr, ptr %12, align 8, !tbaa !73
  %14 = tail call i32 %13(ptr noundef nonnull %1, ptr noundef %2, i64 noundef 9) #9
  %.not34 = icmp eq i32 %14, 0
  br i1 %.not34, label %19, label %15

15:                                               ; preds = %11
  %16 = getelementptr inbounds nuw i8, ptr %0, i64 72
  %17 = load ptr, ptr %16, align 8, !tbaa !40
  %18 = tail call i32 (ptr, i32, ptr, ...) %17(ptr noundef %0, i32 noundef %14, ptr noundef nonnull @.str.88, ptr noundef nonnull %3, ptr noundef nonnull %4) #9
  br label %36

19:                                               ; preds = %11
  %20 = getelementptr inbounds nuw i8, ptr %2, i64 8
  %21 = load i8, ptr %20, align 1, !tbaa !33
  %22 = zext i8 %21 to i32
  %23 = and i32 %22, 15
  %24 = icmp samesign ugt i32 %23, 2
  br i1 %24, label %25, label %29

25:                                               ; preds = %19
  %26 = getelementptr inbounds nuw i8, ptr %0, i64 72
  %27 = load ptr, ptr %26, align 8, !tbaa !40
  %28 = tail call i32 (ptr, i32, ptr, ...) %27(ptr noundef %0, i32 noundef 14, ptr noundef nonnull @.str.102, ptr noundef nonnull %3, i32 noundef %23) #9
  br label %36

29:                                               ; preds = %19
  %30 = icmp ugt i8 %21, 31
  br i1 %30, label %31, label %36

31:                                               ; preds = %29
  %32 = lshr i32 %22, 4
  %33 = getelementptr inbounds nuw i8, ptr %0, i64 72
  %34 = load ptr, ptr %33, align 8, !tbaa !40
  %35 = tail call i32 (ptr, i32, ptr, ...) %34(ptr noundef %0, i32 noundef 14, ptr noundef nonnull @.str.103, ptr noundef nonnull %3, i32 noundef %32) #9
  br label %36

36:                                               ; preds = %29, %31, %25, %15, %7
  %.0 = phi i32 [ %10, %7 ], [ %18, %15 ], [ %28, %25 ], [ %35, %31 ], [ 0, %29 ]
  ret i32 %.0
}